target datalayout = "e-m:e-p270:32:32-p271:32:32-p272:64:64-i64:64-i128:128-f80:128-n8:16:32:64-S128"
target triple = "x86_64-pc-linux-gnu"

@parentPathv = hidden global ptr null, align 8
@environ = external global ptr, align 8
@.str.1 = private unnamed_addr constant [8 x i8] c"/bin/sh\00", align 1

; Function Attrs: nounwind uwtable
define internal void @execve_as_traditional_shell_script(ptr noundef %0, ptr noundef %1, ptr noundef %2) #0 {
  %4 = alloca ptr, align 8
  %5 = alloca ptr, align 8
  %6 = alloca ptr, align 8
  %7 = alloca ptr, align 8
  %8 = alloca ptr, align 8
  store ptr %0, ptr %4, align 8
  store ptr %1, ptr %5, align 8
  store ptr %2, ptr %6, align 8
  %9 = load ptr, ptr %5, align 8
  %10 = getelementptr inbounds ptr, ptr %9, i64 0
  %11 = load ptr, ptr %10, align 8
  store ptr %11, ptr %7, align 8
  %12 = load ptr, ptr %5, align 8
  store ptr %12, ptr %8, align 8
  br label %13

13:                                               ; preds = %17, %3
  %14 = load ptr, ptr %8, align 8
  %15 = load ptr, ptr %14, align 8
  %16 = icmp ne ptr %15, null
  br i1 %16, label %17, label %20

17:                                               ; preds = %13
  %18 = load ptr, ptr %8, align 8
  %19 = getelementptr inbounds ptr, ptr %18, i32 1
  store ptr %19, ptr %8, align 8
  br label %13, !llvm.loop !13

20:                                               ; preds = %13
  %21 = load ptr, ptr %5, align 8
  %22 = getelementptr inbounds ptr, ptr %21, i64 2
  %23 = load ptr, ptr %5, align 8
  %24 = getelementptr inbounds ptr, ptr %23, i64 1
  %25 = load ptr, ptr %8, align 8
  %26 = load ptr, ptr %5, align 8
  %27 = ptrtoint ptr %25 to i64
  %28 = ptrtoint ptr %26 to i64
  %29 = sub i64 %27, %28
  %30 = sdiv exact i64 %29, 8
  %31 = mul i64 %30, 8
  call void @llvm.memmove.p0.p0.i64(ptr align 8 %22, ptr align 8 %24, i64 %31, i1 false)
  %32 = load ptr, ptr %5, align 8
  %33 = getelementptr inbounds ptr, ptr %32, i64 0
  store ptr @.str.1, ptr %33, align 8
  %34 = load ptr, ptr %4, align 8
  %35 = load ptr, ptr %5, align 8
  %36 = getelementptr inbounds ptr, ptr %35, i64 1
  store ptr %34, ptr %36, align 8
  %37 = load ptr, ptr %5, align 8
  %38 = getelementptr inbounds ptr, ptr %37, i64 0
  %39 = load ptr, ptr %38, align 8
  %40 = load ptr, ptr %5, align 8
  %41 = load ptr, ptr %6, align 8
  %42 = call i32 @execve(ptr noundef %39, ptr noundef %40, ptr noundef %41) #8
  %43 = load ptr, ptr %5, align 8
  %44 = getelementptr inbounds ptr, ptr %43, i64 1
  %45 = load ptr, ptr %5, align 8
  %46 = getelementptr inbounds ptr, ptr %45, i64 2
  %47 = load ptr, ptr %8, align 8
  %48 = load ptr, ptr %5, align 8
  %49 = ptrtoint ptr %47 to i64
  %50 = ptrtoint ptr %48 to i64
  %51 = sub i64 %49, %50
  %52 = sdiv exact i64 %51, 8
  %53 = mul i64 %52, 8
  call void @llvm.memmove.p0.p0.i64(ptr align 8 %44, ptr align 8 %46, i64 %53, i1 false)
  %54 = load ptr, ptr %7, align 8
  %55 = load ptr, ptr %5, align 8
  %56 = getelementptr inbounds ptr, ptr %55, i64 0
  store ptr %54, ptr %56, align 8
  ret void
}

; Function Attrs: nounwind uwtable
define internal void @execve_with_shell_fallback(i32 noundef %0, ptr noundef %1, ptr noundef %2, ptr noundef %3) #0 {
  %5 = alloca i32, align 4
  %6 = alloca ptr, align 8
  %7 = alloca ptr, align 8
  %8 = alloca ptr, align 8
  store i32 %0, ptr %5, align 4
  store ptr %1, ptr %6, align 8
  store ptr %2, ptr %7, align 8
  store ptr %3, ptr %8, align 8
  %9 = load i32, ptr %5, align 4
  %10 = icmp eq i32 %9, 3
  br i1 %10, label %11, label %24

11:                                               ; preds = %4
  %12 = load ptr, ptr %6, align 8
  %13 = load ptr, ptr %7, align 8
  %14 = load ptr, ptr %8, align 8
  %15 = call i32 @execve(ptr noundef %12, ptr noundef %13, ptr noundef %14) #8
  %16 = call ptr @__errno_location() #7
  %17 = load i32, ptr %16, align 4
  %18 = icmp eq i32 %17, 8
  br i1 %18, label %19, label %23

19:                                               ; preds = %11
  %20 = load ptr, ptr %6, align 8
  %21 = load ptr, ptr %7, align 8
  %22 = load ptr, ptr %8, align 8
  call void @execve_as_traditional_shell_script(ptr noundef %20, ptr noundef %21, ptr noundef %22)
  br label %23

23:                                               ; preds = %19, %11
  br label %29

24:                                               ; preds = %4
  %25 = load ptr, ptr %8, align 8
  store ptr %25, ptr @environ, align 8
  %26 = load ptr, ptr %6, align 8
  %27 = load ptr, ptr %7, align 8
  %28 = call i32 @execvp(ptr noundef %26, ptr noundef %27) #8
  br label %29

29:                                               ; preds = %24, %23
  ret void
}

; Function Attrs: nounwind uwtable
define internal void @JDK_execvpe(i32 noundef %0, ptr noundef %1, ptr noundef %2, ptr noundef %3) #0 {
  %5 = alloca i32, align 4
  %6 = alloca ptr, align 8
  %7 = alloca ptr, align 8
  %8 = alloca ptr, align 8
  %9 = alloca [4096 x i8], align 16
  %10 = alloca i32, align 4
  %11 = alloca i32, align 4
  %12 = alloca ptr, align 8
  %13 = alloca ptr, align 8
  %14 = alloca i32, align 4
  store i32 %0, ptr %5, align 4
  store ptr %1, ptr %6, align 8
  store ptr %2, ptr %7, align 8
  store ptr %3, ptr %8, align 8
  %15 = load ptr, ptr %8, align 8
  %16 = icmp eq ptr %15, null
  br i1 %16, label %21, label %17

17:                                               ; preds = %4
  %18 = load ptr, ptr %8, align 8
  %19 = load ptr, ptr @environ, align 8
  %20 = icmp eq ptr %18, %19
  br i1 %20, label %21, label %25

21:                                               ; preds = %17, %4
  %22 = load ptr, ptr %6, align 8
  %23 = load ptr, ptr %7, align 8
  %24 = call i32 @execvp(ptr noundef %22, ptr noundef %23) #8
  br label %115

25:                                               ; preds = %17
  %26 = load ptr, ptr %6, align 8
  %27 = load i8, ptr %26, align 1
  %28 = sext i8 %27 to i32
  %29 = icmp eq i32 %28, 0
  br i1 %29, label %30, label %32

30:                                               ; preds = %25
  %31 = call ptr @__errno_location() #7
  store i32 2, ptr %31, align 4
  br label %115

32:                                               ; preds = %25
  %33 = load ptr, ptr %6, align 8
  %34 = call ptr @strchr(ptr noundef %33, i32 noundef 47) #10
  %35 = icmp ne ptr %34, null
  br i1 %35, label %36, label %41

36:                                               ; preds = %32
  %37 = load i32, ptr %5, align 4
  %38 = load ptr, ptr %6, align 8
  %39 = load ptr, ptr %7, align 8
  %40 = load ptr, ptr %8, align 8
  call void @execve_with_shell_fallback(i32 noundef %37, ptr noundef %38, ptr noundef %39, ptr noundef %40)
  br label %115

41:                                               ; preds = %32
  %42 = load ptr, ptr %6, align 8
  %43 = call i64 @strlen(ptr noundef %42) #10
  %44 = trunc i64 %43 to i32
  store i32 %44, ptr %10, align 4
  store i32 0, ptr %11, align 4
  %45 = load ptr, ptr @parentPathv, align 8
  store ptr %45, ptr %12, align 8
  br label %46

46:                                               ; preds = %105, %41
  %47 = load ptr, ptr %12, align 8
  %48 = load ptr, ptr %47, align 8
  %49 = icmp ne ptr %48, null
  br i1 %49, label %50, label %108

50:                                               ; preds = %46
  %51 = load ptr, ptr %12, align 8
  %52 = load ptr, ptr %51, align 8
  store ptr %52, ptr %13, align 8
  %53 = load ptr, ptr %13, align 8
  %54 = call i64 @strlen(ptr noundef %53) #10
  %55 = trunc i64 %54 to i32
  store i32 %55, ptr %14, align 4
  %56 = load i32, ptr %10, align 4
  %57 = load i32, ptr %14, align 4
  %58 = add nsw i32 %56, %57
  %59 = add nsw i32 %58, 2
  %60 = icmp sge i32 %59, 4096
  br i1 %60, label %61, label %63

61:                                               ; preds = %50
  %62 = call ptr @__errno_location() #7
  store i32 36, ptr %62, align 4
  br label %105

63:                                               ; preds = %50
  %64 = getelementptr inbounds [4096 x i8], ptr %9, i64 0, i64 0
  %65 = load ptr, ptr %13, align 8
  %66 = load i32, ptr %14, align 4
  %67 = sext i32 %66 to i64
  call void @llvm.memcpy.p0.p0.i64(ptr align 16 %64, ptr align 1 %65, i64 %67, i1 false)
  %68 = load i32, ptr %14, align 4
  %69 = sub nsw i32 %68, 1
  %70 = sext i32 %69 to i64
  %71 = getelementptr inbounds [4096 x i8], ptr %9, i64 0, i64 %70
  %72 = load i8, ptr %71, align 1
  %73 = sext i8 %72 to i32
  %74 = icmp ne i32 %73, 47
  br i1 %74, label %75, label %80

75:                                               ; preds = %63
  %76 = load i32, ptr %14, align 4
  %77 = add nsw i32 %76, 1
  store i32 %77, ptr %14, align 4
  %78 = sext i32 %76 to i64
  %79 = getelementptr inbounds [4096 x i8], ptr %9, i64 0, i64 %78
  store i8 47, ptr %79, align 1
  br label %80

80:                                               ; preds = %75, %63
  %81 = getelementptr inbounds [4096 x i8], ptr %9, i64 0, i64 0
  %82 = load i32, ptr %14, align 4
  %83 = sext i32 %82 to i64
  %84 = getelementptr inbounds i8, ptr %81, i64 %83
  %85 = load ptr, ptr %6, align 8
  %86 = load i32, ptr %10, align 4
  %87 = sext i32 %86 to i64
  call void @llvm.memcpy.p0.p0.i64(ptr align 1 %84, ptr align 1 %85, i64 %87, i1 false)
  %88 = load i32, ptr %14, align 4
  %89 = load i32, ptr %10, align 4
  %90 = add nsw i32 %88, %89
  %91 = sext i32 %90 to i64
  %92 = getelementptr inbounds [4096 x i8], ptr %9, i64 0, i64 %91
  store i8 0, ptr %92, align 1
  %93 = load i32, ptr %5, align 4
  %94 = getelementptr inbounds [4096 x i8], ptr %9, i64 0, i64 0
  %95 = load ptr, ptr %7, align 8
  %96 = load ptr, ptr %8, align 8
  call void @execve_with_shell_fallback(i32 noundef %93, ptr noundef %94, ptr noundef %95, ptr noundef %96)
  %97 = call ptr @__errno_location() #7
  %98 = load i32, ptr %97, align 4
  switch i32 %98, label %103 [
    i32 13, label %99
    i32 2, label %102
    i32 20, label %102
    i32 40, label %102
    i32 116, label %102
    i32 19, label %102
    i32 110, label %102
  ]

99:                                               ; preds = %80
  %100 = call ptr @__errno_location() #7
  %101 = load i32, ptr %100, align 4
  store i32 %101, ptr %11, align 4
  br label %102

102:                                              ; preds = %99, %80, %80, %80, %80, %80, %80
  br label %104

103:                                              ; preds = %80
  br label %115

104:                                              ; preds = %102
  br label %105

105:                                              ; preds = %104, %61
  %106 = load ptr, ptr %12, align 8
  %107 = getelementptr inbounds ptr, ptr %106, i32 1
  store ptr %107, ptr %12, align 8
  br label %46, !llvm.loop !12

108:                                              ; preds = %46
  %109 = load i32, ptr %11, align 4
  %110 = icmp ne i32 %109, 0
  br i1 %110, label %111, label %114

111:                                              ; preds = %108
  %112 = load i32, ptr %11, align 4
  %113 = call ptr @__errno_location() #7
  store i32 %112, ptr %113, align 4
  br label %114

114:                                              ; preds = %111, %108
  br label %115

115:                                              ; preds = %114, %103, %36, %30, %21
  ret void
}