; Function Attrs: nofree nounwind uwtable
define internal fastcc void @JDK_execvpe(i32 noundef %0, ptr noundef %1, ptr noundef %2, ptr noundef %3) unnamed_addr #3 {
  %5 = alloca [4096 x i8], align 16
  %6 = icmp eq ptr %3, null
  %7 = load ptr, ptr @environ, align 8
  %8 = icmp eq ptr %7, %3
  %or.cond = select i1 %6, i1 true, i1 %8
  br i1 %or.cond, label %9, label %11

9:                                                ; preds = %4
  %10 = tail call i32 @execvp(ptr noundef %1, ptr noundef %2) #14
  br label %execve_with_shell_fallback.exit

11:                                               ; preds = %4
  %12 = load i8, ptr %1, align 1
  %13 = icmp eq i8 %12, 0
  br i1 %13, label %14, label %16

14:                                               ; preds = %11
  %15 = tail call ptr @__errno_location() #15
  store i32 2, ptr %15, align 4
  br label %execve_with_shell_fallback.exit

16:                                               ; preds = %11
  %17 = tail call ptr @strchr(ptr noundef nonnull dereferenceable(1) %1, i32 noundef 47) #17
  %.not = icmp eq ptr %17, null
  br i1 %.not, label %36, label %18

18:                                               ; preds = %16
  %19 = icmp eq i32 %0, 3
  br i1 %19, label %20, label %34

20:                                               ; preds = %18
  %21 = tail call i32 @execve(ptr noundef nonnull %1, ptr noundef %2, ptr noundef nonnull %3) #14
  %22 = tail call ptr @__errno_location() #15
  %23 = load i32, ptr %22, align 4
  %24 = icmp eq i32 %23, 8
  br i1 %24, label %25, label %execve_with_shell_fallback.exit

25:                                               ; preds = %20
  %26 = load ptr, ptr %2, align 8
  %.not20.i.i = icmp eq ptr %26, null
  br i1 %.not20.i.i, label %execve_as_traditional_shell_script.exit.i, label %.lr.ph.i.i

.lr.ph.i.i:                                       ; preds = %25, %.lr.ph.i.i
  %.021.i.i = phi ptr [ %27, %.lr.ph.i.i ], [ %2, %25 ]
  %27 = getelementptr inbounds i8, ptr %.021.i.i, i64 8
  %.pr.i.i = load ptr, ptr %27, align 8
  %.not.i.i = icmp eq ptr %.pr.i.i, null
  br i1 %.not.i.i, label %execve_as_traditional_shell_script.exit.i, label %.lr.ph.i.i, !llvm.loop !12

execve_as_traditional_shell_script.exit.i:        ; preds = %.lr.ph.i.i, %25
  %.0.lcssa.i.i = phi ptr [ %2, %25 ], [ %27, %.lr.ph.i.i ]
  %28 = getelementptr inbounds i8, ptr %2, i64 16
  %29 = getelementptr inbounds i8, ptr %2, i64 8
  %30 = ptrtoint ptr %.0.lcssa.i.i to i64
  %31 = ptrtoint ptr %2 to i64
  %32 = sub i64 %30, %31
  tail call void @llvm.memmove.p0.p0.i64(ptr nonnull align 8 %28, ptr nonnull align 8 %29, i64 %32, i1 false)
  store ptr @.str.1, ptr %2, align 8
  store ptr %1, ptr %29, align 8
  %33 = tail call i32 @execve(ptr noundef nonnull @.str.1, ptr noundef nonnull %2, ptr noundef %3) #14
  tail call void @llvm.memmove.p0.p0.i64(ptr nonnull align 8 %29, ptr nonnull align 8 %28, i64 %32, i1 false)
  store ptr %26, ptr %2, align 8
  br label %execve_with_shell_fallback.exit

34:                                               ; preds = %18
  store ptr %3, ptr @environ, align 8
  %35 = tail call i32 @execvp(ptr noundef nonnull %1, ptr noundef %2) #14
  br label %execve_with_shell_fallback.exit

36:                                               ; preds = %16
  %37 = tail call i64 @strlen(ptr noundef nonnull dereferenceable(1) %1) #17
  %38 = trunc i64 %37 to i32
  %39 = load ptr, ptr @parentPathv, align 8
  %40 = load ptr, ptr %39, align 8
  %.not3551 = icmp eq ptr %40, null
  br i1 %.not3551, label %execve_with_shell_fallback.exit, label %.lr.ph

.lr.ph:                                           ; preds = %36
  %sext39 = shl i64 %37, 32
  %41 = ashr exact i64 %sext39, 32
  %42 = icmp eq i32 %0, 3
  %43 = getelementptr inbounds i8, ptr %2, i64 16
  %44 = getelementptr inbounds i8, ptr %2, i64 8
  %45 = ptrtoint ptr %2 to i64
  br i1 %42, label %.lr.ph.split.us, label %.lr.ph.split

.lr.ph.split.us:                                  ; preds = %.lr.ph, %77
  %46 = phi ptr [ %79, %77 ], [ %40, %.lr.ph ]
  %.03053.us = phi i32 [ %.1.us, %77 ], [ 0, %.lr.ph ]
  %.03152.us = phi ptr [ %78, %77 ], [ %39, %.lr.ph ]
  %47 = call i64 @strlen(ptr noundef nonnull dereferenceable(1) %46) #17
  %48 = trunc i64 %47 to i32
  %49 = add nsw i32 %48, %38
  %50 = icmp sgt i32 %49, 4093
  br i1 %50, label %75, label %51

51:                                               ; preds = %.lr.ph.split.us
  %sext.us = shl i64 %47, 32
  %52 = ashr exact i64 %sext.us, 32
  call void @llvm.memcpy.p0.p0.i64(ptr nonnull align 16 %5, ptr nonnull align 1 %46, i64 %52, i1 false)
  %sext37.us = add i64 %sext.us, -4294967296
  %53 = ashr exact i64 %sext37.us, 32
  %54 = getelementptr inbounds [4096 x i8], ptr %5, i64 0, i64 %53
  %55 = load i8, ptr %54, align 1
  %.not38.us = icmp eq i8 %55, 47
  br i1 %.not38.us, label %59, label %56

56:                                               ; preds = %51
  %57 = add nsw i32 %48, 1
  %58 = getelementptr inbounds [4096 x i8], ptr %5, i64 0, i64 %52
  store i8 47, ptr %58, align 1
  %.pre57 = add nsw i32 %57, %38
  br label %59

59:                                               ; preds = %56, %51
  %.pre-phi = phi i32 [ %.pre57, %56 ], [ %49, %51 ]
  %.0.us = phi i32 [ %57, %56 ], [ %48, %51 ]
  %60 = sext i32 %.0.us to i64
  %61 = getelementptr inbounds i8, ptr %5, i64 %60
  call void @llvm.memcpy.p0.p0.i64(ptr nonnull align 1 %61, ptr nonnull align 1 %1, i64 %41, i1 false)
  %62 = sext i32 %.pre-phi to i64
  %63 = getelementptr inbounds [4096 x i8], ptr %5, i64 0, i64 %62
  store i8 0, ptr %63, align 1
  %64 = call i32 @execve(ptr noundef nonnull %5, ptr noundef %2, ptr noundef %3) #14
  %65 = tail call ptr @__errno_location() #15
  %66 = load i32, ptr %65, align 4
  %67 = icmp eq i32 %66, 8
  br i1 %67, label %68, label %execve_with_shell_fallback.exit48.us

68:                                               ; preds = %59
  %69 = load ptr, ptr %2, align 8
  %.not20.i.i41.us = icmp eq ptr %69, null
  br i1 %.not20.i.i41.us, label %execve_as_traditional_shell_script.exit.i46.us, label %.lr.ph.i.i42.us

.lr.ph.i.i42.us:                                  ; preds = %68, %.lr.ph.i.i42.us
  %.021.i.i43.us = phi ptr [ %70, %.lr.ph.i.i42.us ], [ %2, %68 ]
  %70 = getelementptr inbounds i8, ptr %.021.i.i43.us, i64 8
  %.pr.i.i44.us = load ptr, ptr %70, align 8
  %.not.i.i45.us = icmp eq ptr %.pr.i.i44.us, null
  br i1 %.not.i.i45.us, label %execve_as_traditional_shell_script.exit.i46.us.loopexit, label %.lr.ph.i.i42.us, !llvm.loop !12

execve_as_traditional_shell_script.exit.i46.us.loopexit: ; preds = %.lr.ph.i.i42.us
  %.pre58 = ptrtoint ptr %70 to i64
  br label %execve_as_traditional_shell_script.exit.i46.us

execve_as_traditional_shell_script.exit.i46.us:   ; preds = %execve_as_traditional_shell_script.exit.i46.us.loopexit, %68
  %.pre-phi59 = phi i64 [ %.pre58, %execve_as_traditional_shell_script.exit.i46.us.loopexit ], [ %45, %68 ]
  %71 = sub i64 %.pre-phi59, %45
  call void @llvm.memmove.p0.p0.i64(ptr nonnull align 8 %43, ptr nonnull align 8 %44, i64 %71, i1 false)
  store ptr @.str.1, ptr %2, align 8
  store ptr %5, ptr %44, align 8
  %72 = call i32 @execve(ptr noundef nonnull @.str.1, ptr noundef nonnull %2, ptr noundef %3) #14
  call void @llvm.memmove.p0.p0.i64(ptr nonnull align 8 %44, ptr nonnull align 8 %43, i64 %71, i1 false)
  store ptr %69, ptr %2, align 8
  %.pre = load i32, ptr %65, align 4
  br label %execve_with_shell_fallback.exit48.us

execve_with_shell_fallback.exit48.us:             ; preds = %execve_as_traditional_shell_script.exit.i46.us, %59
  %73 = phi i32 [ %.pre, %execve_as_traditional_shell_script.exit.i46.us ], [ %66, %59 ]
  switch i32 %73, label %execve_with_shell_fallback.exit [
    i32 13, label %74
    i32 2, label %77
    i32 20, label %77
    i32 40, label %77
    i32 116, label %77
    i32 19, label %77
    i32 110, label %77
  ]

74:                                               ; preds = %execve_with_shell_fallback.exit48.us
  br label %77

75:                                               ; preds = %.lr.ph.split.us
  %76 = tail call ptr @__errno_location() #15
  store i32 36, ptr %76, align 4
  br label %77

77:                                               ; preds = %75, %74, %execve_with_shell_fallback.exit48.us, %execve_with_shell_fallback.exit48.us, %execve_with_shell_fallback.exit48.us, %execve_with_shell_fallback.exit48.us, %execve_with_shell_fallback.exit48.us, %execve_with_shell_fallback.exit48.us
  %.1.us = phi i32 [ %.03053.us, %75 ], [ %.03053.us, %execve_with_shell_fallback.exit48.us ], [ %.03053.us, %execve_with_shell_fallback.exit48.us ], [ %.03053.us, %execve_with_shell_fallback.exit48.us ], [ %.03053.us, %execve_with_shell_fallback.exit48.us ], [ %.03053.us, %execve_with_shell_fallback.exit48.us ], [ %.03053.us, %execve_with_shell_fallback.exit48.us ], [ 13, %74 ]
  %78 = getelementptr inbounds i8, ptr %.03152.us, i64 8
  %79 = load ptr, ptr %78, align 8
  %.not35.us = icmp eq ptr %79, null
  br i1 %.not35.us, label %._crit_edge, label %.lr.ph.split.us, !llvm.loop !13

.lr.ph.split:                                     ; preds = %.lr.ph, %103
  %80 = phi ptr [ %105, %103 ], [ %40, %.lr.ph ]
  %.03053 = phi i32 [ %.1, %103 ], [ 0, %.lr.ph ]
  %.03152 = phi ptr [ %104, %103 ], [ %39, %.lr.ph ]
  %81 = call i64 @strlen(ptr noundef nonnull dereferenceable(1) %80) #17
  %82 = trunc i64 %81 to i32
  %83 = add nsw i32 %82, %38
  %84 = icmp sgt i32 %83, 4093
  br i1 %84, label %85, label %87

85:                                               ; preds = %.lr.ph.split
  %86 = tail call ptr @__errno_location() #15
  store i32 36, ptr %86, align 4
  br label %103

87:                                               ; preds = %.lr.ph.split
  %sext = shl i64 %81, 32
  %88 = ashr exact i64 %sext, 32
  call void @llvm.memcpy.p0.p0.i64(ptr nonnull align 16 %5, ptr nonnull align 1 %80, i64 %88, i1 false)
  %sext37 = add i64 %sext, -4294967296
  %89 = ashr exact i64 %sext37, 32
  %90 = getelementptr inbounds [4096 x i8], ptr %5, i64 0, i64 %89
  %91 = load i8, ptr %90, align 1
  %.not38 = icmp eq i8 %91, 47
  br i1 %.not38, label %execve_with_shell_fallback.exit48, label %92

92:                                               ; preds = %87
  %93 = add nsw i32 %82, 1
  %94 = getelementptr inbounds [4096 x i8], ptr %5, i64 0, i64 %88
  store i8 47, ptr %94, align 1
  %.pre60 = add nsw i32 %93, %38
  br label %execve_with_shell_fallback.exit48

execve_with_shell_fallback.exit48:                ; preds = %92, %87
  %.pre-phi61 = phi i32 [ %.pre60, %92 ], [ %83, %87 ]
  %.0 = phi i32 [ %93, %92 ], [ %82, %87 ]
  %95 = sext i32 %.0 to i64
  %96 = getelementptr inbounds i8, ptr %5, i64 %95
  call void @llvm.memcpy.p0.p0.i64(ptr nonnull align 1 %96, ptr nonnull align 1 %1, i64 %41, i1 false)
  %97 = sext i32 %.pre-phi61 to i64
  %98 = getelementptr inbounds [4096 x i8], ptr %5, i64 0, i64 %97
  store i8 0, ptr %98, align 1
  store ptr %3, ptr @environ, align 8
  %99 = call i32 @execvp(ptr noundef nonnull %5, ptr noundef %2) #14
  %100 = tail call ptr @__errno_location() #15
  %101 = load i32, ptr %100, align 4
  switch i32 %101, label %execve_with_shell_fallback.exit [
    i32 13, label %102
    i32 2, label %103
    i32 20, label %103
    i32 40, label %103
    i32 116, label %103
    i32 19, label %103
    i32 110, label %103
  ]

102:                                              ; preds = %execve_with_shell_fallback.exit48
  br label %103

103:                                              ; preds = %102, %execve_with_shell_fallback.exit48, %execve_with_shell_fallback.exit48, %execve_with_shell_fallback.exit48, %execve_with_shell_fallback.exit48, %execve_with_shell_fallback.exit48, %execve_with_shell_fallback.exit48, %85
  %.1 = phi i32 [ %.03053, %85 ], [ %.03053, %execve_with_shell_fallback.exit48 ], [ %.03053, %execve_with_shell_fallback.exit48 ], [ %.03053, %execve_with_shell_fallback.exit48 ], [ %.03053, %execve_with_shell_fallback.exit48 ], [ %.03053, %execve_with_shell_fallback.exit48 ], [ %.03053, %execve_with_shell_fallback.exit48 ], [ 13, %102 ]
  %104 = getelementptr inbounds i8, ptr %.03152, i64 8
  %105 = load ptr, ptr %104, align 8
  %.not35 = icmp eq ptr %105, null
  br i1 %.not35, label %._crit_edge, label %.lr.ph.split, !llvm.loop !13

._crit_edge:                                      ; preds = %103, %77
  %.030.lcssa = phi i32 [ %.1.us, %77 ], [ %.1, %103 ]
  %.not36 = icmp eq i32 %.030.lcssa, 0
  br i1 %.not36, label %execve_with_shell_fallback.exit, label %106

106:                                              ; preds = %._crit_edge
  %107 = tail call ptr @__errno_location() #15
  store i32 %.030.lcssa, ptr %107, align 4
  br label %execve_with_shell_fallback.exit

execve_with_shell_fallback.exit:                  ; preds = %execve_with_shell_fallback.exit48, %execve_with_shell_fallback.exit48.us, %36, %34, %execve_as_traditional_shell_script.exit.i, %20, %._crit_edge, %106, %14, %9
  ret void
}